; Function Attrs: mustprogress uwtable
define void @_ZN6casadi4Expm4initERKSt3mapINSt7__cxx1112basic_stringIcSt11char_traitsIcESaIcEEENS_11GenericTypeESt4lessIS7_ESaISt4pairIKS7_S8_EEE(ptr noundef nonnull align 8 dereferenceable(1329) %0, ptr noundef nonnull align 8 dereferenceable(48) %1) unnamed_addr #3 align 2 personality ptr @__gxx_personality_v0 {
  tail call void @_ZN6casadi16FunctionInternal4initERKSt3mapINSt7__cxx1112basic_stringIcSt11char_traitsIcESaIcEEENS_11GenericTypeESt4lessIS7_ESaISt4pairIKS7_S8_EEE(ptr noundef nonnull align 8 dereferenceable(1312) %0, ptr noundef nonnull align 8 dereferenceable(48) %1)
  %3 = getelementptr inbounds nuw i8, ptr %0, i64 1328
  store i8 0, ptr %3, align 8, !tbaa !82
  %4 = getelementptr inbounds nuw i8, ptr %1, i64 24
  %5 = load ptr, ptr %4, align 8, !tbaa !72
  %6 = getelementptr inbounds nuw i8, ptr %1, i64 8
  %.not10 = icmp eq ptr %5, %6
  br i1 %.not10, label %._crit_edge, label %.lr.ph

._crit_edge:                                      ; preds = %14, %2
  ret void

.lr.ph:                                           ; preds = %2, %14
  %.sroa.07.011 = phi ptr [ %15, %14 ], [ %5, %2 ]
  %7 = getelementptr inbounds nuw i8, ptr %.sroa.07.011, i64 32
  %8 = tail call noundef i32 @_ZNKSt7__cxx1112basic_stringIcSt11char_traitsIcESaIcEE7compareEPKc(ptr noundef nonnull align 8 dereferenceable(32) %7, ptr noundef nonnull @.str.5) #26
  %9 = icmp eq i32 %8, 0
  br i1 %9, label %10, label %14

10:                                               ; preds = %.lr.ph
  %11 = getelementptr inbounds nuw i8, ptr %.sroa.07.011, i64 64
  %12 = tail call noundef zeroext i1 @_ZNK6casadi11GenericType7to_boolEv(ptr noundef nonnull align 8 dereferenceable(8) %11)
  %13 = zext i1 %12 to i8
  store i8 %13, ptr %3, align 8, !tbaa !82
  br label %14

14:                                               ; preds = %10, %.lr.ph
  %15 = tail call noundef ptr @_ZSt18_Rb_tree_incrementPKSt18_Rb_tree_node_base(ptr noundef nonnull %.sroa.07.011) #30
  %.not = icmp eq ptr %15, %6
  br i1 %.not, label %._crit_edge, label %.lr.ph
}